target datalayout = "e-m:e-p270:32:32-p271:32:32-p272:64:64-i64:64-i128:128-f80:128-n8:16:32:64-S128"
target triple = "x86_64-pc-linux-gnu"

%"class.llvm::StringRef" = type { ptr, i64 }
%"class.std::optional.80" = type { %"struct.std::_Optional_base.81" }
%"struct.std::_Optional_base.81" = type { %"struct.std::_Optional_payload.83" }
%"struct.std::_Optional_payload.83" = type { %"struct.std::_Optional_payload_base.base", [7 x i8] }
%"struct.std::_Optional_payload_base.base" = type <{ %"union.std::_Optional_payload_base<unsigned long>::_Storage", i8 }>
%"union.std::_Optional_payload_base<unsigned long>::_Storage" = type { i64 }
%"class.std::__cxx11::basic_string" = type { %"struct.std::__cxx11::basic_string<char>::_Alloc_hider", i64, %union.anon }
%"struct.std::__cxx11::basic_string<char>::_Alloc_hider" = type { ptr }
%union.anon = type { i64, [8 x i8] }
%"struct.llvm::object::SectionedAddress" = type { i64, i64 }
%"class.llvm::DWARFDie" = type { ptr, ptr }
%"struct.llvm::DILineInfo" = type <{ %"class.std::__cxx11::basic_string", %"class.std::__cxx11::basic_string", %"class.std::__cxx11::basic_string", %"class.std::optional.348", %"class.std::optional.348", i32, i32, i32, [4 x i8], %"class.std::optional.80", i32, i8, [3 x i8] }>
%"class.std::optional.348" = type { %"struct.std::_Optional_base.349" }
%"struct.std::_Optional_base.349" = type { %"struct.std::_Optional_payload.351" }
%"struct.std::_Optional_payload.351" = type { %"struct.std::_Optional_payload_base.base.353", [7 x i8] }
%"struct.std::_Optional_payload_base.base.353" = type <{ %"union.std::_Optional_payload_base<llvm::StringRef>::_Storage", i8 }>
%"union.std::_Optional_payload_base<llvm::StringRef>::_Storage" = type { %"class.llvm::StringRef" }

; Function Attrs: mustprogress nounwind uwtable
define linkonce_odr hidden noundef zeroext i1 @_ZNK4llvm8DWARFDie7isValidEv(ptr noundef nonnull align 8 dereferenceable(16) %0) #0 comdat align 2 {
  %2 = alloca ptr, align 8
  store ptr %0, ptr %2, align 8
  %3 = load ptr, ptr %2, align 8
  %4 = getelementptr inbounds nuw %"class.llvm::DWARFDie", ptr %3, i32 0, i32 0
  %5 = load ptr, ptr %4, align 8
  %6 = icmp ne ptr %5, null
  br i1 %6, label %7, label %11

7:                                                ; preds = %1
  %8 = getelementptr inbounds nuw %"class.llvm::DWARFDie", ptr %3, i32 0, i32 1
  %9 = load ptr, ptr %8, align 8
  %10 = icmp ne ptr %9, null
  br label %11

11:                                               ; preds = %7, %1
  %12 = phi i1 [ false, %1 ], [ %10, %7 ]
  ret i1 %12
}

; Function Attrs: mustprogress nounwind uwtable
define linkonce_odr hidden void @_ZN4llvm10DILineInfoD2Ev(ptr noundef nonnull align 8 dereferenceable(181) %0) unnamed_addr #0 comdat align 2 {
  %2 = alloca ptr, align 8
  store ptr %0, ptr %2, align 8
  %3 = load ptr, ptr %2, align 8
  %4 = getelementptr inbounds nuw %"struct.llvm::DILineInfo", ptr %3, i32 0, i32 2
  call void @_ZNSt7__cxx1112basic_stringIcSt11char_traitsIcESaIcEED1Ev(ptr noundef nonnull align 8 dereferenceable(32) %4) #13
  %5 = getelementptr inbounds nuw %"struct.llvm::DILineInfo", ptr %3, i32 0, i32 1
  call void @_ZNSt7__cxx1112basic_stringIcSt11char_traitsIcESaIcEED1Ev(ptr noundef nonnull align 8 dereferenceable(32) %5) #13
  %6 = getelementptr inbounds nuw %"struct.llvm::DILineInfo", ptr %3, i32 0, i32 0
  call void @_ZNSt7__cxx1112basic_stringIcSt11char_traitsIcESaIcEED1Ev(ptr noundef nonnull align 8 dereferenceable(32) %6) #13
  ret void
}

; Function Attrs: mustprogress nounwind uwtable
define linkonce_odr hidden noundef zeroext i1 @_ZNK4llvm8DWARFDiecvbEv(ptr noundef nonnull align 8 dereferenceable(16) %0) #0 comdat align 2 {
  %2 = alloca ptr, align 8
  store ptr %0, ptr %2, align 8
  %3 = load ptr, ptr %2, align 8
  %4 = call noundef zeroext i1 @_ZNK4llvm8DWARFDie7isValidEv(ptr noundef nonnull align 8 dereferenceable(16) %3)
  ret i1 %4
}

; Function Attrs: mustprogress nounwind uwtable
define dso_local void @_ZN4llvm12DWARFContext25getLineInfoForDataAddressENS_6object16SectionedAddressE(ptr dead_on_unwind noalias writable sret(%"struct.llvm::DILineInfo") align 8 %0, ptr noundef nonnull align 8 dereferenceable(105) %1, i64 %2, i64 %3) unnamed_addr #0 align 2 {
  %5 = alloca ptr, align 8
  %6 = alloca %"struct.llvm::object::SectionedAddress", align 8
  %7 = alloca ptr, align 8
  %8 = alloca i1, align 1
  %9 = alloca ptr, align 8
  %10 = alloca i32, align 4
  %11 = alloca %"class.llvm::DWARFDie", align 8
  %12 = alloca %"class.std::__cxx11::basic_string", align 8
  store ptr %0, ptr %5, align 8
  %13 = getelementptr inbounds nuw { i64, i64 }, ptr %6, i32 0, i32 0
  store i64 %2, ptr %13, align 8
  %14 = getelementptr inbounds nuw { i64, i64 }, ptr %6, i32 0, i32 1
  store i64 %3, ptr %14, align 8
  store ptr %1, ptr %7, align 8
  %15 = load ptr, ptr %7, align 8
  store i1 false, ptr %8, align 1
  call void @_ZN4llvm10DILineInfoC2Ev(ptr noundef nonnull align 8 dereferenceable(181) %0)
  %16 = getelementptr inbounds nuw %"struct.llvm::object::SectionedAddress", ptr %6, i32 0, i32 0
  %17 = load i64, ptr %16, align 8
  %18 = call noundef ptr @_ZN4llvm12DWARFContext28getCompileUnitForDataAddressEm(ptr noundef nonnull align 8 dereferenceable(105) %15, i64 noundef %17)
  store ptr %18, ptr %9, align 8
  %19 = load ptr, ptr %9, align 8
  %20 = icmp ne ptr %19, null
  br i1 %20, label %22, label %21

21:                                               ; preds = %4
  store i1 true, ptr %8, align 1
  store i32 1, ptr %10, align 4
  br label %39

22:                                               ; preds = %4
  %23 = load ptr, ptr %9, align 8
  %24 = getelementptr inbounds nuw %"struct.llvm::object::SectionedAddress", ptr %6, i32 0, i32 0
  %25 = load i64, ptr %24, align 8
  %26 = call { ptr, ptr } @_ZN4llvm9DWARFUnit21getVariableForAddressEm(ptr noundef nonnull align 8 dereferenceable(448) %23, i64 noundef %25)
  %27 = getelementptr inbounds nuw { ptr, ptr }, ptr %11, i32 0, i32 0
  %28 = extractvalue { ptr, ptr } %26, 0
  store ptr %28, ptr %27, align 8
  %29 = getelementptr inbounds nuw { ptr, ptr }, ptr %11, i32 0, i32 1
  %30 = extractvalue { ptr, ptr } %26, 1
  store ptr %30, ptr %29, align 8
  %31 = call noundef zeroext i1 @_ZNK4llvm8DWARFDiecvbEv(ptr noundef nonnull align 8 dereferenceable(16) %11)
  br i1 %31, label %32, label %38

32:                                               ; preds = %22
  call void @_ZNK4llvm8DWARFDie11getDeclFileB5cxx11ENS_19DILineInfoSpecifier16FileLineInfoKindE(ptr dead_on_unwind writable sret(%"class.std::__cxx11::basic_string") align 8 %12, ptr noundef nonnull align 8 dereferenceable(16) %11, i32 noundef 4)
  %33 = getelementptr inbounds nuw %"struct.llvm::DILineInfo", ptr %0, i32 0, i32 0
  %34 = call noundef nonnull align 8 dereferenceable(32) ptr @_ZNSt7__cxx1112basic_stringIcSt11char_traitsIcESaIcEEaSEOS4_(ptr noundef nonnull align 8 dereferenceable(32) %33, ptr noundef nonnull align 8 dereferenceable(32) %12) #13
  call void @_ZNSt7__cxx1112basic_stringIcSt11char_traitsIcESaIcEED1Ev(ptr noundef nonnull align 8 dereferenceable(32) %12) #13
  %35 = call noundef i64 @_ZNK4llvm8DWARFDie11getDeclLineEv(ptr noundef nonnull align 8 dereferenceable(16) %11)
  %36 = trunc i64 %35 to i32
  %37 = getelementptr inbounds nuw %"struct.llvm::DILineInfo", ptr %0, i32 0, i32 5
  store i32 %36, ptr %37, align 8
  br label %38

38:                                               ; preds = %32, %22
  store i1 true, ptr %8, align 1
  store i32 1, ptr %10, align 4
  br label %39

39:                                               ; preds = %38, %21
  %40 = load i1, ptr %8, align 1
  br i1 %40, label %42, label %41

41:                                               ; preds = %39
  call void @_ZN4llvm10DILineInfoD2Ev(ptr noundef nonnull align 8 dereferenceable(181) %0) #13
  br label %42

42:                                               ; preds = %41, %39
  ret void
}