; Function Attrs: mustprogress nounwind uwtable
define dso_local void @_ZN4llvm12DWARFContext25getLineInfoForDataAddressENS_6object16SectionedAddressE(ptr dead_on_unwind noalias nonnull writable sret(%"struct.llvm::DILineInfo") align 8 %0, ptr nocapture noundef nonnull readonly align 8 dereferenceable(105) %1, i64 %2, i64 %3) unnamed_addr #0 align 2 {
  %5 = alloca %"class.llvm::DWARFDie", align 8
  %6 = alloca %"class.std::__cxx11::basic_string", align 8
  tail call void @_ZN4llvm10DILineInfoC2Ev(ptr noundef nonnull align 8 dereferenceable(181) %0)
  %7 = tail call noundef ptr @_ZN4llvm12DWARFContext28getCompileUnitForDataAddressEm(ptr noundef nonnull align 8 dereferenceable(105) %1, i64 noundef %2)
  %.not = icmp eq ptr %7, null
  br i1 %.not, label %20, label %8

8:                                                ; preds = %4
  %9 = tail call { ptr, ptr } @_ZN4llvm9DWARFUnit21getVariableForAddressEm(ptr noundef nonnull align 8 dereferenceable(448) %7, i64 noundef %2) #24
  %10 = extractvalue { ptr, ptr } %9, 0
  store ptr %10, ptr %5, align 8
  %11 = getelementptr inbounds nuw i8, ptr %5, i64 8
  %12 = extractvalue { ptr, ptr } %9, 1
  store ptr %12, ptr %11, align 8
  %.not.i.i = icmp ne ptr %10, null
  %13 = icmp ne ptr %12, null
  %14 = select i1 %.not.i.i, i1 %13, i1 false
  br i1 %14, label %15, label %20

15:                                               ; preds = %8
  call void @_ZNK4llvm8DWARFDie11getDeclFileB5cxx11ENS_19DILineInfoSpecifier16FileLineInfoKindE(ptr dead_on_unwind nonnull writable sret(%"class.std::__cxx11::basic_string") align 8 %6, ptr noundef nonnull align 8 dereferenceable(16) %5, i32 noundef 4) #24
  %16 = call noundef nonnull align 8 dereferenceable(32) ptr @_ZNSt7__cxx1112basic_stringIcSt11char_traitsIcESaIcEEaSEOS4_(ptr noundef nonnull align 8 dereferenceable(32) %0, ptr noundef nonnull align 8 dereferenceable(32) %6) #24
  call void @_ZNSt7__cxx1112basic_stringIcSt11char_traitsIcESaIcEED1Ev(ptr noundef nonnull align 8 dereferenceable(32) %6) #24
  %17 = call noundef i64 @_ZNK4llvm8DWARFDie11getDeclLineEv(ptr noundef nonnull align 8 dereferenceable(16) %5) #24
  %18 = trunc i64 %17 to i32
  %19 = getelementptr inbounds nuw i8, ptr %0, i64 144
  store i32 %18, ptr %19, align 8
  br label %20

20:                                               ; preds = %4, %15, %8
  ret void
}